; Function Attrs: mustprogress uwtable
define dso_local noundef nonnull align 8 dereferenceable(56) ptr @_ZN4absl17BadStatusOrAccessaSERKS0_(ptr noundef nonnull returned align 8 dereferenceable(56) %this, ptr noundef nonnull align 8 dereferenceable(56) %other) local_unnamed_addr #4 align 2 {
entry:
  tail call void @_ZNK4absl17BadStatusOrAccess8InitWhatEv(ptr noundef nonnull align 8 dereferenceable(56) %other)
  %status_ = getelementptr inbounds i8, ptr %other, i64 8
  %status_2 = getelementptr inbounds i8, ptr %this, i64 8
  %0 = load i64, ptr %status_2, align 8
  %1 = load i64, ptr %status_, align 8
  %cmp.not.i = icmp eq i64 %1, %0
  br i1 %cmp.not.i, label %_ZN4absl6StatusaSERKS0_.exit, label %if.then.i

if.then.i:                                        ; preds = %entry
  %and.i.i.i = and i64 %1, 1
  %cmp.i.not.i.i = icmp eq i64 %and.i.i.i, 0
  br i1 %cmp.i.not.i.i, label %if.then.i.i, label %_ZN4absl6Status3RefEm.exit.i

if.then.i.i:                                      ; preds = %if.then.i
  %2 = inttoptr i64 %1 to ptr
  %3 = atomicrmw add ptr %2, i32 1 monotonic, align 4
  %.pre.i = load i64, ptr %status_, align 8
  br label %_ZN4absl6Status3RefEm.exit.i

_ZN4absl6Status3RefEm.exit.i:                     ; preds = %if.then.i.i, %if.then.i
  %4 = phi i64 [ %1, %if.then.i ], [ %.pre.i, %if.then.i.i ]
  store i64 %4, ptr %status_2, align 8
  %and.i.i5.i = and i64 %0, 1
  %cmp.i.not.i6.i = icmp eq i64 %and.i.i5.i, 0
  br i1 %cmp.i.not.i6.i, label %if.then.i7.i, label %_ZN4absl6StatusaSERKS0_.exit

if.then.i7.i:                                     ; preds = %_ZN4absl6Status3RefEm.exit.i
  %5 = inttoptr i64 %0 to ptr
  tail call void @_ZNK4absl15status_internal9StatusRep5UnrefEv(ptr noundef nonnull align 8 dereferenceable(48) %5)
  br label %_ZN4absl6StatusaSERKS0_.exit

_ZN4absl6StatusaSERKS0_.exit:                     ; preds = %entry, %_ZN4absl6Status3RefEm.exit.i, %if.then.i7.i
  %what_ = getelementptr inbounds i8, ptr %other, i64 24
  %what_3 = getelementptr inbounds i8, ptr %this, i64 24
  %call4 = tail call noundef nonnull align 8 dereferenceable(32) ptr @_ZNSt7__cxx1112basic_stringIcSt11char_traitsIcESaIcEEaSERKS4_(ptr noundef nonnull align 8 dereferenceable(32) %what_3, ptr noundef nonnull align 8 dereferenceable(32) %what_)
  ret ptr %this
}